target datalayout = "e-m:e-p270:32:32-p271:32:32-p272:64:64-i64:64-i128:128-f80:128-n8:16:32:64-S128"
target triple = "x86_64-pc-linux-gnu"

%class.RAROptions = type { i32, i32, i8, i8, i8, i64, [2048 x i32], [2048 x i32], i32, i8, [2048 x i32], [2048 x i32], i32, i32, i32, i32, [2048 x i32], [2048 x i32], i8, i8, i8, [2048 x i32], i32, i32, i32, i32, i32, i32, i32, i32, i8, i8, i8, i8, i8, i32, i32, i8, i8, i8, i8, i8, i32, i32, i64, i32, i8, i8, i8, i32, i32, i8, i8, i8, i8, i32, i32, i8, i8, i8, i8, [128 x i32], [128 x i32], i8, i8, i8, i8, i8, %class.RarTime, %class.RarTime, %class.RarTime, i8, i8, i8, %class.RarTime, %class.RarTime, %class.RarTime, i8, i8, i8, i64, i64, i8, i8, i8, [16 x %struct.FilterMode], [2048 x i32], i32, i32, i32, i32, i32, i32, i8, [2048 x i32], i32, [2048 x i32], i32, i32, i64, ptr, ptr, ptr }
%class.RarTime = type { i64 }
%struct.FilterMode = type { i32, i32, i32 }

$_ZN7RarTimeC2Ev = comdat any

$_ZN7RarTime5ResetEv = comdat any

@_ZN10RAROptionsC1Ev = unnamed_addr alias void (ptr), ptr @_ZN10RAROptionsC2Ev

; Function Attrs: mustprogress uwtable
define void @_ZN10RAROptionsC2Ev(ptr noundef nonnull align 8 dereferenceable(83464) %0) unnamed_addr #0 align 2 {
  %2 = alloca ptr, align 8
  store ptr %0, ptr %2, align 8
  %3 = load ptr, ptr %2, align 8
  %4 = getelementptr inbounds %class.RAROptions, ptr %3, i32 0, i32 68
  call void @_ZN7RarTimeC2Ev(ptr noundef nonnull align 8 dereferenceable(8) %4)
  %5 = getelementptr inbounds %class.RAROptions, ptr %3, i32 0, i32 69
  call void @_ZN7RarTimeC2Ev(ptr noundef nonnull align 8 dereferenceable(8) %5)
  %6 = getelementptr inbounds %class.RAROptions, ptr %3, i32 0, i32 70
  call void @_ZN7RarTimeC2Ev(ptr noundef nonnull align 8 dereferenceable(8) %6)
  %7 = getelementptr inbounds %class.RAROptions, ptr %3, i32 0, i32 74
  call void @_ZN7RarTimeC2Ev(ptr noundef nonnull align 8 dereferenceable(8) %7)
  %8 = getelementptr inbounds %class.RAROptions, ptr %3, i32 0, i32 75
  call void @_ZN7RarTimeC2Ev(ptr noundef nonnull align 8 dereferenceable(8) %8)
  %9 = getelementptr inbounds %class.RAROptions, ptr %3, i32 0, i32 76
  call void @_ZN7RarTimeC2Ev(ptr noundef nonnull align 8 dereferenceable(8) %9)
  call void @_ZN10RAROptions4InitEv(ptr noundef nonnull align 8 dereferenceable(83464) %3)
  ret void
}

; Function Attrs: mustprogress uwtable
define linkonce_odr void @_ZN7RarTimeC2Ev(ptr noundef nonnull align 8 dereferenceable(8) %0) unnamed_addr #0 comdat align 2 {
  %2 = alloca ptr, align 8
  store ptr %0, ptr %2, align 8
  %3 = load ptr, ptr %2, align 8
  call void @_ZN7RarTime5ResetEv(ptr noundef nonnull align 8 dereferenceable(8) %3)
  ret void
}

; Function Attrs: mustprogress nounwind uwtable
define void @_ZN10RAROptions4InitEv(ptr noundef nonnull align 8 dereferenceable(83464) %0) #1 align 2 {
  %2 = alloca ptr, align 8
  store ptr %0, ptr %2, align 8
  %3 = load ptr, ptr %2, align 8
  call void @llvm.memset.p0.i64(ptr align 8 %3, i8 0, i64 83464, i1 false)
  %4 = getelementptr inbounds %class.RAROptions, ptr %3, i32 0, i32 5
  store i64 33554432, ptr %4, align 8
  %5 = getelementptr inbounds %class.RAROptions, ptr %3, i32 0, i32 24
  store i32 0, ptr %5, align 4
  %6 = getelementptr inbounds %class.RAROptions, ptr %3, i32 0, i32 25
  store i32 3, ptr %6, align 8
  %7 = getelementptr inbounds %class.RAROptions, ptr %3, i32 0, i32 22
  store i32 0, ptr %7, align 4
  %8 = getelementptr inbounds %class.RAROptions, ptr %3, i32 0, i32 50
  store i32 0, ptr %8, align 4
  %9 = getelementptr inbounds %class.RAROptions, ptr %3, i32 0, i32 90
  store i32 2, ptr %9, align 8
  %10 = getelementptr inbounds %class.RAROptions, ptr %3, i32 0, i32 80
  store i64 9223372034707292159, ptr %10, align 8
  %11 = getelementptr inbounds %class.RAROptions, ptr %3, i32 0, i32 81
  store i64 9223372034707292159, ptr %11, align 8
  %12 = getelementptr inbounds %class.RAROptions, ptr %3, i32 0, i32 26
  store i32 2, ptr %12, align 4
  %13 = getelementptr inbounds %class.RAROptions, ptr %3, i32 0, i32 8
  store i32 1, ptr %13, align 8
  ret void
}

; Function Attrs: nocallback nofree nounwind willreturn memory(argmem: write)
declare void @llvm.memset.p0.i64(ptr nocapture writeonly, i8, i64, i1 immarg) #2

; Function Attrs: mustprogress nounwind uwtable
define linkonce_odr void @_ZN7RarTime5ResetEv(ptr noundef nonnull align 8 dereferenceable(8) %0) #1 comdat align 2 {
  %2 = alloca ptr, align 8
  store ptr %0, ptr %2, align 8
  %3 = load ptr, ptr %2, align 8
  %4 = getelementptr inbounds %class.RarTime, ptr %3, i32 0, i32 0
  store i64 0, ptr %4, align 8
  ret void
}


!llvm.module.flags = !{!0, !1, !2, !3}

!0 = !{i32 1, !"wchar_size", i32 4}
!1 = !{i32 8, !"PIC Level", i32 2}
!2 = !{i32 7, !"uwtable", i32 2}
!3 = !{i32 7, !"frame-pointer", i32 2}
